; ModuleID = '12/206.c'
source_filename = "12/206.c"
target datalayout = "e-m:e-p270:32:32-p271:32:32-p272:64:64-i64:64-f80:128-n8:16:32:64-S128"
target triple = "x86_64-pc-linux-gnu"

@.str = private unnamed_addr constant [3 x i8] c"%d\00", align 1
@.str.1 = private unnamed_addr constant [4 x i8] c"%d\0A\00", align 1

; Function Attrs: noinline nounwind uwtable
define dso_local void @main() #0 {
  %1 = alloca i32, align 4
  %2 = alloca i32, align 4
  %3 = alloca i32, align 4
  %4 = alloca i32, align 4
  %5 = alloca i32, align 4
  %6 = alloca [20 x i32], align 16
  store i32 0, i32* %5, align 4
  br label %7

7:                                                ; preds = %0, %63
  store i32 0, i32* %5, align 4
  %8 = getelementptr inbounds [20 x i32], [20 x i32]* %6, i64 0, i64 0
  %9 = call i32 (i8*, ...) @__isoc99_scanf(i8* getelementptr inbounds ([3 x i8], [3 x i8]* @.str, i64 0, i64 0), i32* %8)
  %10 = getelementptr inbounds [20 x i32], [20 x i32]* %6, i64 0, i64 0
  %11 = load i32, i32* %10, align 16
  %12 = icmp eq i32 %11, -1
  br i1 %12, label %13, label %14

13:                                               ; preds = %7
  br label %66

14:                                               ; preds = %7
  store i32 1, i32* %2, align 4
  br label %15

15:                                               ; preds = %27, %14
  %16 = load i32, i32* %2, align 4
  %17 = sub nsw i32 %16, 1
  %18 = sext i32 %17 to i64
  %19 = getelementptr inbounds [20 x i32], [20 x i32]* %6, i64 0, i64 %18
  %20 = load i32, i32* %19, align 4
  %21 = icmp ne i32 %20, 0
  br i1 %21, label %22, label %30

22:                                               ; preds = %15
  %23 = load i32, i32* %2, align 4
  %24 = sext i32 %23 to i64
  %25 = getelementptr inbounds [20 x i32], [20 x i32]* %6, i64 0, i64 %24
  %26 = call i32 (i8*, ...) @__isoc99_scanf(i8* getelementptr inbounds ([3 x i8], [3 x i8]* @.str, i64 0, i64 0), i32* %25)
  br label %27

27:                                               ; preds = %22
  %28 = load i32, i32* %2, align 4
  %29 = add nsw i32 %28, 1
  store i32 %29, i32* %2, align 4
  br label %15

30:                                               ; preds = %15
  store i32 0, i32* %3, align 4
  br label %31

31:                                               ; preds = %60, %30
  %32 = load i32, i32* %3, align 4
  %33 = load i32, i32* %2, align 4
  %34 = sub nsw i32 %33, 1
  %35 = icmp slt i32 %32, %34
  br i1 %35, label %36, label %63

36:                                               ; preds = %31
  store i32 0, i32* %4, align 4
  br label %37

37:                                               ; preds = %56, %36
  %38 = load i32, i32* %4, align 4
  %39 = load i32, i32* %2, align 4
  %40 = icmp slt i32 %38, %39
  br i1 %40, label %41, label %59

41:                                               ; preds = %37
  %42 = load i32, i32* %4, align 4
  %43 = sext i32 %42 to i64
  %44 = getelementptr inbounds [20 x i32], [20 x i32]* %6, i64 0, i64 %43
  %45 = load i32, i32* %44, align 4
  %46 = load i32, i32* %3, align 4
  %47 = sext i32 %46 to i64
  %48 = getelementptr inbounds [20 x i32], [20 x i32]* %6, i64 0, i64 %47
  %49 = load i32, i32* %48, align 4
  %50 = mul nsw i32 2, %49
  %51 = icmp eq i32 %45, %50
  br i1 %51, label %52, label %55

52:                                               ; preds = %41
  %53 = load i32, i32* %5, align 4
  %54 = add nsw i32 %53, 1
  store i32 %54, i32* %5, align 4
  br label %55

55:                                               ; preds = %52, %41
  br label %56

56:                                               ; preds = %55
  %57 = load i32, i32* %4, align 4
  %58 = add nsw i32 %57, 1
  store i32 %58, i32* %4, align 4
  br label %37

59:                                               ; preds = %37
  br label %60

60:                                               ; preds = %59
  %61 = load i32, i32* %3, align 4
  %62 = add nsw i32 %61, 1
  store i32 %62, i32* %3, align 4
  br label %31

63:                                               ; preds = %31
  %64 = load i32, i32* %5, align 4
  %65 = call i32 (i8*, ...) @printf(i8* getelementptr inbounds ([4 x i8], [4 x i8]* @.str.1, i64 0, i64 0), i32 %64)
  br label %7

66:                                               ; preds = %13
  ret void
}

declare dso_local i32 @__isoc99_scanf(i8*, ...) #1

declare dso_local i32 @printf(i8*, ...) #1


!llvm.module.flags = !{!0}
!llvm.ident = !{!1}

!0 = !{i32 1, !"wchar_size", i32 4}
!1 = !{!"clang version 10.0.0-4ubuntu1 "}
